; Function Attrs: nounwind sspstrong uwtable
define hidden i64 @rb_ary_at(i64 noundef %0, i64 noundef %1) #4 {
  %3 = and i64 %1, 1
  %.not.i = icmp eq i64 %3, 0
  br i1 %.not.i, label %6, label %4

4:                                                ; preds = %2
  %5 = ashr i64 %1, 1
  br label %rb_num2long_inline.exit

6:                                                ; preds = %2
  %7 = tail call i64 @rb_num2long(i64 noundef %1) #24
  br label %rb_num2long_inline.exit

rb_num2long_inline.exit:                          ; preds = %4, %6
  %.0.i = phi i64 [ %5, %4 ], [ %7, %6 ]
  %8 = inttoptr i64 %0 to ptr
  %9 = load i64, ptr %8, align 8, !tbaa !7
  %10 = and i64 %9, 8192
  %.not.i.i.i = icmp eq i64 %10, 0
  br i1 %.not.i.i.i, label %15, label %11

11:                                               ; preds = %rb_num2long_inline.exit
  %12 = lshr i64 %9, 15
  %13 = and i64 %12, 127
  %14 = getelementptr inbounds nuw i8, ptr %8, i64 16
  br label %rb_array_const_ptr.exit.i.i

15:                                               ; preds = %rb_num2long_inline.exit
  %16 = getelementptr inbounds nuw i8, ptr %8, i64 16
  %17 = load i64, ptr %16, align 8, !tbaa !12
  %18 = getelementptr inbounds nuw i8, ptr %8, i64 32
  %19 = load ptr, ptr %18, align 8, !tbaa !12
  br label %rb_array_const_ptr.exit.i.i

rb_array_const_ptr.exit.i.i:                      ; preds = %15, %11
  %.0.i18.i.i = phi i64 [ %13, %11 ], [ %17, %15 ]
  %.0.i16.i.i = phi ptr [ %14, %11 ], [ %19, %15 ]
  %20 = icmp eq i64 %.0.i18.i.i, 0
  br i1 %20, label %rb_ary_entry.exit, label %21

21:                                               ; preds = %rb_array_const_ptr.exit.i.i
  %22 = icmp slt i64 %.0.i, 0
  br i1 %22, label %23, label %26

23:                                               ; preds = %21
  %24 = add i64 %.0.i18.i.i, %.0.i
  %25 = icmp slt i64 %24, 0
  br i1 %25, label %rb_ary_entry.exit, label %27

26:                                               ; preds = %21
  %.not.i.i = icmp sgt i64 %.0.i18.i.i, %.0.i
  br i1 %.not.i.i, label %27, label %rb_ary_entry.exit

27:                                               ; preds = %26, %23
  %.011.i.i = phi i64 [ %24, %23 ], [ %.0.i, %26 ]
  %28 = getelementptr i64, ptr %.0.i16.i.i, i64 %.011.i.i
  %29 = load i64, ptr %28, align 8, !tbaa !13
  br label %rb_ary_entry.exit

rb_ary_entry.exit:                                ; preds = %rb_array_const_ptr.exit.i.i, %23, %26, %27
  %.0.i.i = phi i64 [ %29, %27 ], [ 4, %rb_array_const_ptr.exit.i.i ], [ 4, %23 ], [ 4, %26 ]
  ret i64 %.0.i.i
}